target datalayout = "e-m:e-p270:32:32-p271:32:32-p272:64:64-i64:64-i128:128-f80:128-n8:16:32:64-S128"
target triple = "x86_64-pc-linux-gnu"

%struct._zval_struct = type { %union._zend_value, %union.anon, %union.anon.2 }
%union._zend_value = type { i64 }
%union.anon = type { i32 }
%union.anon.2 = type { i32 }
%struct._zend_array = type { %struct._zend_refcounted_h, %union.anon.5, i32, %union.anon.7, i32, i32, i32, i32, i64, ptr }
%struct._zend_refcounted_h = type { i32, %union.anon.3 }
%union.anon.3 = type { i32 }
%union.anon.5 = type { i32 }
%union.anon.7 = type { ptr }
%struct._zend_object_handlers = type { i32, ptr, ptr, ptr, ptr, ptr, ptr, ptr, ptr, ptr, ptr, ptr, ptr, ptr, ptr, ptr, ptr, ptr, ptr, ptr, ptr, ptr, ptr, ptr, ptr }
%struct._zend_object = type { %struct._zend_refcounted_h, i32, ptr, ptr, ptr, [1 x %struct._zval_struct] }
%struct._zend_class_entry = type { i8, ptr, %union.anon.4, i32, i32, i32, i32, ptr, ptr, ptr, %struct._zend_array, %struct._zend_array, %struct._zend_array, ptr, ptr, ptr, ptr, ptr, ptr, ptr, ptr, ptr, ptr, ptr, ptr, ptr, ptr, ptr, ptr, ptr, ptr, ptr, %union.anon.8, ptr, ptr, ptr, ptr, i32, i32, %union.anon.9, ptr, ptr, ptr, ptr, i32, ptr, ptr, %union.anon.10 }
%union.anon.4 = type { ptr }
%union.anon.8 = type { ptr }
%union.anon.9 = type { ptr }
%union.anon.10 = type { %struct.anon.11 }
%struct.anon.11 = type { ptr, i32, i32 }
%struct._zend_string = type { %struct._zend_refcounted_h, i64, i64, [1 x i8] }
%struct._zend_class_iterator_funcs = type { ptr, ptr, ptr, ptr, ptr, ptr }
%struct._zend_user_iterator = type { %struct._zend_object_iterator, ptr, %struct._zval_struct }
%struct._zend_object_iterator = type { %struct._zend_object, %struct._zval_struct, ptr, i64 }
%struct._zend_resource = type { %struct._zend_refcounted_h, i64, i32, ptr }
%struct._zend_reference = type { %struct._zend_refcounted_h, %struct._zval_struct, %union.zend_property_info_source_list }
%union.zend_property_info_source_list = type { ptr }

; Function Attrs: nounwind uwtable
define i32 @zend_user_it_valid(ptr noundef %0) #0 {
  %2 = alloca ptr, align 8
  %3 = alloca ptr, align 8
  %4 = alloca ptr, align 8
  %5 = alloca ptr, align 8
  %6 = alloca i32, align 4
  %7 = alloca ptr, align 8
  %8 = alloca ptr, align 8
  %9 = alloca ptr, align 8
  %10 = alloca i8, align 1
  %11 = alloca ptr, align 8
  %12 = alloca ptr, align 8
  %13 = alloca ptr, align 8
  %14 = alloca i32, align 4
  %15 = alloca ptr, align 8
  %16 = alloca ptr, align 8
  %17 = alloca ptr, align 8
  %18 = alloca %struct._zval_struct, align 8
  %19 = alloca i8, align 1
  store ptr %0, ptr %15, align 8
  %20 = load ptr, ptr %15, align 8
  %21 = icmp ne ptr %20, null
  br i1 %21, label %22, label %131

22:                                               ; preds = %1
  %23 = load ptr, ptr %15, align 8
  store ptr %23, ptr %16, align 8
  %24 = load ptr, ptr %16, align 8
  %25 = getelementptr inbounds %struct._zend_user_iterator, ptr %24, i32 0, i32 0
  %26 = getelementptr inbounds %struct._zend_object_iterator, ptr %25, i32 0, i32 1
  store ptr %26, ptr %17, align 8
  %27 = load ptr, ptr %16, align 8
  %28 = getelementptr inbounds %struct._zend_user_iterator, ptr %27, i32 0, i32 1
  %29 = load ptr, ptr %28, align 8
  %30 = getelementptr inbounds %struct._zend_class_entry, ptr %29, i32 0, i32 30
  %31 = load ptr, ptr %30, align 8
  %32 = getelementptr inbounds %struct._zend_class_iterator_funcs, ptr %31, i32 0, i32 1
  %33 = load ptr, ptr %32, align 8
  %34 = load ptr, ptr %17, align 8
  %35 = getelementptr inbounds %struct._zval_struct, ptr %34, i32 0, i32 0
  %36 = load ptr, ptr %35, align 8
  store ptr %33, ptr %11, align 8
  store ptr %36, ptr %12, align 8
  store ptr %18, ptr %13, align 8
  %37 = load ptr, ptr %11, align 8
  %38 = load ptr, ptr %12, align 8
  %39 = load ptr, ptr %13, align 8
  store ptr %37, ptr %3, align 8
  store ptr %38, ptr %4, align 8
  store ptr %39, ptr %5, align 8
  store i32 0, ptr %6, align 4
  store ptr null, ptr %7, align 8
  %40 = load ptr, ptr %3, align 8
  %41 = load ptr, ptr %4, align 8
  %42 = load ptr, ptr %4, align 8
  %43 = getelementptr inbounds %struct._zend_object, ptr %42, i32 0, i32 2
  %44 = load ptr, ptr %43, align 8
  %45 = load ptr, ptr %5, align 8
  %46 = load i32, ptr %6, align 4
  %47 = load ptr, ptr %7, align 8
  call void @zend_call_known_function(ptr noundef %40, ptr noundef %41, ptr noundef %44, ptr noundef %45, i32 noundef %46, ptr noundef %47, ptr noundef null) #10
  store ptr %18, ptr %9, align 8
  store i8 0, ptr %10, align 1
  br label %48

48:                                               ; preds = %119, %22
  %49 = load ptr, ptr %9, align 8
  store ptr %49, ptr %8, align 8
  %50 = load ptr, ptr %8, align 8
  %51 = getelementptr inbounds %struct._zval_struct, ptr %50, i32 0, i32 1
  %52 = load i8, ptr %51, align 8
  %53 = zext i8 %52 to i32
  switch i32 %53, label %123 [
    i32 3, label %54
    i32 4, label %55
    i32 5, label %61
    i32 6, label %67
    i32 7, label %88
    i32 8, label %97
    i32 9, label %111
    i32 10, label %119
  ]

54:                                               ; preds = %48
  store i8 1, ptr %10, align 1
  br label %124

55:                                               ; preds = %48
  %56 = load ptr, ptr %9, align 8
  %57 = load i64, ptr %56, align 8
  %58 = icmp ne i64 %57, 0
  br i1 %58, label %59, label %60

59:                                               ; preds = %55
  store i8 1, ptr %10, align 1
  br label %60

60:                                               ; preds = %59, %55
  br label %124

61:                                               ; preds = %48
  %62 = load ptr, ptr %9, align 8
  %63 = load double, ptr %62, align 8
  %64 = fcmp une double %63, 0.000000e+00
  br i1 %64, label %65, label %66

65:                                               ; preds = %61
  store i8 1, ptr %10, align 1
  br label %66

66:                                               ; preds = %65, %61
  br label %124

67:                                               ; preds = %48
  %68 = load ptr, ptr %9, align 8
  %69 = load ptr, ptr %68, align 8
  %70 = getelementptr inbounds %struct._zend_string, ptr %69, i32 0, i32 2
  %71 = load i64, ptr %70, align 8
  %72 = icmp ugt i64 %71, 1
  br i1 %72, label %86, label %73

73:                                               ; preds = %67
  %74 = load ptr, ptr %9, align 8
  %75 = load ptr, ptr %74, align 8
  %76 = getelementptr inbounds %struct._zend_string, ptr %75, i32 0, i32 2
  %77 = load i64, ptr %76, align 8
  %78 = icmp ne i64 %77, 0
  br i1 %78, label %79, label %87

79:                                               ; preds = %73
  %80 = load ptr, ptr %9, align 8
  %81 = load ptr, ptr %80, align 8
  %82 = getelementptr inbounds %struct._zend_string, ptr %81, i32 0, i32 3
  %83 = load i8, ptr %82, align 8
  %84 = sext i8 %83 to i32
  %85 = icmp ne i32 %84, 48
  br i1 %85, label %86, label %87

86:                                               ; preds = %79, %67
  store i8 1, ptr %10, align 1
  br label %87

87:                                               ; preds = %86, %79, %73
  br label %124

88:                                               ; preds = %48
  %89 = load ptr, ptr %9, align 8
  %90 = load ptr, ptr %89, align 8
  store ptr %90, ptr %2, align 8
  %91 = load ptr, ptr %2, align 8
  %92 = getelementptr inbounds %struct._zend_array, ptr %91, i32 0, i32 5
  %93 = load i32, ptr %92, align 4
  %94 = icmp ne i32 %93, 0
  br i1 %94, label %95, label %96

95:                                               ; preds = %88
  store i8 1, ptr %10, align 1
  br label %96

96:                                               ; preds = %95, %88
  br label %124

97:                                               ; preds = %48
  %98 = load ptr, ptr %9, align 8
  %99 = load ptr, ptr %98, align 8
  %100 = getelementptr inbounds %struct._zend_object, ptr %99, i32 0, i32 3
  %101 = load ptr, ptr %100, align 8
  %102 = getelementptr inbounds %struct._zend_object_handlers, ptr %101, i32 0, i32 17
  %103 = load ptr, ptr %102, align 8
  %104 = icmp eq ptr %103, @zend_std_cast_object_tostring
  br i1 %104, label %105, label %106

105:                                              ; preds = %97
  store i8 1, ptr %10, align 1
  br label %110

106:                                              ; preds = %97
  %107 = load ptr, ptr %9, align 8
  %108 = call zeroext i1 @zend_object_is_true(ptr noundef %107) #10
  %109 = zext i1 %108 to i8
  store i8 %109, ptr %10, align 1
  br label %110

110:                                              ; preds = %106, %105
  br label %124

111:                                              ; preds = %48
  %112 = load ptr, ptr %9, align 8
  %113 = load ptr, ptr %112, align 8
  %114 = getelementptr inbounds %struct._zend_resource, ptr %113, i32 0, i32 1
  %115 = load i64, ptr %114, align 8
  %116 = icmp ne i64 %115, 0
  br i1 %116, label %117, label %118

117:                                              ; preds = %111
  store i8 1, ptr %10, align 1
  br label %118

118:                                              ; preds = %117, %111
  br label %124

119:                                              ; preds = %48
  %120 = load ptr, ptr %9, align 8
  %121 = load ptr, ptr %120, align 8
  %122 = getelementptr inbounds %struct._zend_reference, ptr %121, i32 0, i32 1
  store ptr %122, ptr %9, align 8
  br label %48

123:                                              ; preds = %48
  br label %124

124:                                              ; preds = %123, %118, %110, %96, %87, %66, %60, %54
  %125 = load i8, ptr %10, align 1
  %126 = trunc i8 %125 to i1
  %127 = zext i1 %126 to i8
  store i8 %127, ptr %19, align 1
  call void @zval_ptr_dtor(ptr noundef %18)
  %128 = load i8, ptr %19, align 1
  %129 = trunc i8 %128 to i1
  %130 = select i1 %129, i32 0, i32 -1
  store i32 %130, ptr %14, align 4
  br label %132

131:                                              ; preds = %1
  store i32 -1, ptr %14, align 4
  br label %132

132:                                              ; preds = %131, %124
  %133 = load i32, ptr %14, align 4
  ret i32 %133
}