; Function Attrs: nounwind uwtable
define i32 @zend_user_it_valid(ptr noundef readonly %0) #0 {
  %2 = alloca %struct._zval_struct, align 8
  %.not = icmp eq ptr %0, null
  br i1 %.not, label %55, label %3

3:                                                ; preds = %1
  %4 = getelementptr inbounds i8, ptr %0, i64 56
  %5 = getelementptr inbounds i8, ptr %0, i64 88
  %6 = load ptr, ptr %5, align 8
  %7 = getelementptr inbounds i8, ptr %6, i64 368
  %8 = load ptr, ptr %7, align 8
  %9 = getelementptr inbounds i8, ptr %8, i64 8
  %10 = load ptr, ptr %9, align 8
  %11 = load ptr, ptr %4, align 8
  %12 = getelementptr inbounds i8, ptr %11, i64 16
  %13 = load ptr, ptr %12, align 8
  call void @zend_call_known_function(ptr noundef %10, ptr noundef %11, ptr noundef %13, ptr noundef nonnull %2, i32 noundef 0, ptr noundef null, ptr noundef null) #9
  br label %14

14:                                               ; preds = %52, %3
  %.0 = phi ptr [ %2, %3 ], [ %54, %52 ]
  %15 = getelementptr inbounds i8, ptr %.0, i64 8
  %16 = load i8, ptr %15, align 8
  switch i8 %16, label %.loopexit.loopexit [
    i8 3, label %.loopexit
    i8 4, label %17
    i8 5, label %19
    i8 6, label %23
    i8 7, label %33
    i8 8, label %37
    i8 9, label %48
    i8 10, label %52
  ]

17:                                               ; preds = %14
  %18 = load i64, ptr %.0, align 8
  %.not37 = icmp eq i64 %18, 0
  %spec.select = sext i1 %.not37 to i32
  br label %.loopexit

19:                                               ; preds = %14
  %20 = load double, ptr %.0, align 8
  %21 = fcmp une double %20, 0.000000e+00
  br i1 %21, label %22, label %.loopexit

22:                                               ; preds = %19
  br label %.loopexit

23:                                               ; preds = %14
  %24 = load ptr, ptr %.0, align 8
  %25 = getelementptr inbounds i8, ptr %24, i64 16
  %26 = load i64, ptr %25, align 8
  %27 = icmp ugt i64 %26, 1
  br i1 %27, label %32, label %28

28:                                               ; preds = %23
  %.not35 = icmp eq i64 %26, 0
  br i1 %.not35, label %.loopexit, label %29

29:                                               ; preds = %28
  %30 = getelementptr inbounds i8, ptr %24, i64 24
  %31 = load i8, ptr %30, align 8
  %.not36 = icmp eq i8 %31, 48
  br i1 %.not36, label %.loopexit, label %32

32:                                               ; preds = %29, %23
  br label %.loopexit

33:                                               ; preds = %14
  %34 = load ptr, ptr %.0, align 8
  %35 = getelementptr inbounds i8, ptr %34, i64 28
  %36 = load i32, ptr %35, align 4
  %.not34 = icmp eq i32 %36, 0
  %spec.select38 = sext i1 %.not34 to i32
  br label %.loopexit

37:                                               ; preds = %14
  %38 = load ptr, ptr %.0, align 8
  %39 = getelementptr inbounds i8, ptr %38, i64 24
  %40 = load ptr, ptr %39, align 8
  %41 = getelementptr inbounds i8, ptr %40, i64 136
  %42 = load ptr, ptr %41, align 8
  %43 = icmp eq ptr %42, @zend_std_cast_object_tostring
  br i1 %43, label %.loopexit, label %44

44:                                               ; preds = %37
  %45 = call zeroext i1 @zend_object_is_true(ptr noundef nonnull %.0) #9
  %46 = xor i1 %45, true
  %47 = sext i1 %46 to i32
  br label %.loopexit

48:                                               ; preds = %14
  %49 = load ptr, ptr %.0, align 8
  %50 = getelementptr inbounds i8, ptr %49, i64 8
  %51 = load i64, ptr %50, align 8
  %.not33 = icmp eq i64 %51, 0
  %spec.select39 = sext i1 %.not33 to i32
  br label %.loopexit

52:                                               ; preds = %14
  %53 = load ptr, ptr %.0, align 8
  %54 = getelementptr inbounds i8, ptr %53, i64 8
  br label %14

.loopexit.loopexit:                               ; preds = %14
  br label %.loopexit

.loopexit:                                        ; preds = %14, %.loopexit.loopexit, %48, %33, %17, %37, %44, %28, %29, %32, %19, %22
  %.029 = phi i32 [ %47, %44 ], [ 0, %32 ], [ -1, %29 ], [ -1, %28 ], [ 0, %22 ], [ -1, %19 ], [ %spec.select, %17 ], [ %spec.select38, %33 ], [ 0, %37 ], [ %spec.select39, %48 ], [ -1, %.loopexit.loopexit ], [ 0, %14 ]
  call void @zval_ptr_dtor(ptr noundef nonnull %2) #9
  br label %55

55:                                               ; preds = %1, %.loopexit
  %.030 = phi i32 [ %.029, %.loopexit ], [ -1, %1 ]
  ret i32 %.030
}